; Function Attrs: mustprogress nofree norecurse nosync nounwind willreturn memory(read, inaccessiblemem: none) uwtable
define noundef zeroext i1 @_ZN5mmu_t7mmio_okEm11access_type(ptr noundef nonnull readonly align 8 captures(none) dereferenceable(43168) %0, i64 noundef %1, i32 noundef %2) local_unnamed_addr #14 align 2 {
  %4 = icmp ult i64 %1, 4096
  br i1 %4, label %5, label %12

5:                                                ; preds = %3
  %6 = getelementptr inbounds nuw i8, ptr %0, i64 80
  %7 = load ptr, ptr %6, align 8, !tbaa !39
  %.not = icmp eq ptr %7, null
  br i1 %.not, label %12, label %8

8:                                                ; preds = %5
  %9 = getelementptr inbounds nuw i8, ptr %7, i64 2416
  %10 = load i8, ptr %9, align 8, !tbaa !211, !range !69, !noundef !70
  %11 = trunc nuw i8 %10 to i1
  br i1 %11, label %12, label %13

12:                                               ; preds = %8, %5, %3
  br label %13

13:                                               ; preds = %8, %12
  %.0 = phi i1 [ true, %12 ], [ false, %8 ]
  ret i1 %.0
}